target datalayout = "e-m:e-p270:32:32-p271:32:32-p272:64:64-i64:64-i128:128-f80:128-n8:16:32:64-S128"
target triple = "x86_64-pc-linux-gnu"

%struct.ZSTD_customMem = type { ptr, ptr, ptr }
%struct.ZSTD_frameParameters = type { i32, i32, i32 }
%struct.ZSTD_compressionParameters = type { i32, i32, i32, i32, i32, i32, i32 }
%struct.ZSTD_CCtx_s = type { i32, i32, i32, %struct.ZSTD_CCtx_params_s, %struct.ZSTD_CCtx_params_s, %struct.ZSTD_CCtx_params_s, i32, i64, %struct.ZSTD_cwksp, i64, i64, i64, i64, %struct.XXH64_state_s, %struct.ZSTD_customMem, ptr, i64, %struct.SeqCollector, i32, i32, %struct.SeqStore_t, %struct.ldmState_t, ptr, i64, %struct.RawSeqStore_t, %struct.ZSTD_blockState_t, ptr, i64, i32, ptr, i64, i64, i64, i64, ptr, i64, i64, i64, i32, i32, %struct.ZSTD_inBuffer_s, i64, i64, %struct.ZSTD_localDict, ptr, %struct.ZSTD_prefixDict_s, ptr, i64, %struct.ZSTD_blockSplitCtx, ptr, i64 }
%struct.ZSTD_CCtx_params_s = type { i32, %struct.ZSTD_compressionParameters, %struct.ZSTD_frameParameters, i32, i32, i64, i32, i32, i32, i32, i64, i32, i32, %struct.ldmParams_t, i32, i32, i32, i32, i32, i32, i32, i64, i32, i32, %struct.ZSTD_customMem, i32, i32, ptr, ptr, i32 }
%struct.ldmParams_t = type { i32, i32, i32, i32, i32, i32 }
%struct.ZSTD_cwksp = type { ptr, ptr, ptr, ptr, ptr, ptr, ptr, i8, i32, i32, i32 }
%struct.XXH64_state_s = type { i64, [4 x i64], [4 x i64], i32, i32, i64 }
%struct.SeqCollector = type { i32, ptr, i64, i64 }
%struct.SeqStore_t = type { ptr, ptr, ptr, ptr, ptr, ptr, ptr, i64, i64, i32, i32 }
%struct.ldmState_t = type { %struct.ZSTD_window_t, ptr, i32, ptr, [64 x i64], [64 x %struct.ldmMatchCandidate_t] }
%struct.ZSTD_window_t = type { ptr, ptr, ptr, i32, i32, i32 }
%struct.ldmMatchCandidate_t = type { ptr, i32, i32, ptr }
%struct.RawSeqStore_t = type { ptr, i64, i64, i64, i64 }
%struct.ZSTD_blockState_t = type { ptr, ptr, %struct.ZSTD_MatchState_t }
%struct.ZSTD_MatchState_t = type { %struct.ZSTD_window_t, i32, i32, i32, i32, ptr, [8 x i32], i64, i32, ptr, ptr, ptr, i32, i32, %struct.optState_t, ptr, %struct.ZSTD_compressionParameters, ptr, i32, i32 }
%struct.optState_t = type { ptr, ptr, ptr, ptr, ptr, ptr, i32, i32, i32, i32, i32, i32, i32, i32, i32, ptr, i32 }
%struct.ZSTD_inBuffer_s = type { ptr, i64, i64 }
%struct.ZSTD_localDict = type { ptr, ptr, i64, i32, ptr }
%struct.ZSTD_prefixDict_s = type { ptr, i64, i32 }
%struct.ZSTD_blockSplitCtx = type { %struct.SeqStore_t, %struct.SeqStore_t, %struct.SeqStore_t, %struct.SeqStore_t, %struct.SeqStore_t, [196 x i32], %struct.ZSTD_entropyCTablesMetadata_t }
%struct.ZSTD_entropyCTablesMetadata_t = type { %struct.ZSTD_hufCTablesMetadata_t, %struct.ZSTD_fseCTablesMetadata_t }
%struct.ZSTD_hufCTablesMetadata_t = type { i32, [128 x i8], i64 }
%struct.ZSTD_fseCTablesMetadata_t = type { i32, i32, i32, [133 x i8], i64, i64 }

; Function Attrs: nounwind uwtable
define internal i64 @ZSTD_getBlockSize_deprecated(ptr noundef %0) #0 {
  %2 = alloca ptr, align 8
  %3 = alloca %struct.ZSTD_compressionParameters, align 4
  store ptr %0, ptr %2, align 8, !tbaa !11
  call void @llvm.lifetime.start.p0(i64 28, ptr %3) #15
  %4 = load ptr, ptr %2, align 8, !tbaa !11
  %5 = getelementptr inbounds nuw %struct.ZSTD_CCtx_s, ptr %4, i32 0, i32 4
  %6 = getelementptr inbounds nuw %struct.ZSTD_CCtx_params_s, ptr %5, i32 0, i32 1
  call void @llvm.memcpy.p0.p0.i64(ptr align 4 %3, ptr align 4 %6, i64 28, i1 false), !tbaa.struct !90
  %7 = load ptr, ptr %2, align 8, !tbaa !11
  %8 = getelementptr inbounds nuw %struct.ZSTD_CCtx_s, ptr %7, i32 0, i32 4
  %9 = getelementptr inbounds nuw %struct.ZSTD_CCtx_params_s, ptr %8, i32 0, i32 21
  %10 = load i64, ptr %9, align 8, !tbaa !188
  %11 = getelementptr inbounds nuw %struct.ZSTD_compressionParameters, ptr %3, i32 0, i32 0
  %12 = load i32, ptr %11, align 4, !tbaa !83
  %13 = zext i32 %12 to i64
  %14 = shl i64 1, %13
  %15 = icmp ult i64 %10, %14
  br i1 %15, label %16, label %21

16:                                               ; preds = %1
  %17 = load ptr, ptr %2, align 8, !tbaa !11
  %18 = getelementptr inbounds nuw %struct.ZSTD_CCtx_s, ptr %17, i32 0, i32 4
  %19 = getelementptr inbounds nuw %struct.ZSTD_CCtx_params_s, ptr %18, i32 0, i32 21
  %20 = load i64, ptr %19, align 8, !tbaa !188
  br label %26

21:                                               ; preds = %1
  %22 = getelementptr inbounds nuw %struct.ZSTD_compressionParameters, ptr %3, i32 0, i32 0
  %23 = load i32, ptr %22, align 4, !tbaa !83
  %24 = zext i32 %23 to i64
  %25 = shl i64 1, %24
  br label %26

26:                                               ; preds = %21, %16
  %27 = phi i64 [ %20, %16 ], [ %25, %21 ]
  call void @llvm.lifetime.end.p0(i64 28, ptr %3) #15
  ret i64 %27
}

; Function Attrs: nounwind uwtable
define i64 @ZSTD_compressBlock_deprecated(ptr noundef %0, ptr noundef %1, i64 noundef %2, ptr noundef %3, i64 noundef %4) #0 {
  %6 = alloca i64, align 8
  %7 = alloca ptr, align 8
  %8 = alloca ptr, align 8
  %9 = alloca i64, align 8
  %10 = alloca ptr, align 8
  %11 = alloca i64, align 8
  %12 = alloca i64, align 8
  %13 = alloca i32, align 4
  store ptr %0, ptr %7, align 8, !tbaa !11
  store ptr %1, ptr %8, align 8, !tbaa !15
  store i64 %2, ptr %9, align 8, !tbaa !3
  store ptr %3, ptr %10, align 8, !tbaa !15
  store i64 %4, ptr %11, align 8, !tbaa !3
  br label %14

14:                                               ; preds = %5
  br label %15

15:                                               ; preds = %14
  call void @llvm.lifetime.start.p0(i64 8, ptr %12) #15
  %16 = load ptr, ptr %7, align 8, !tbaa !11
  %17 = call i64 @ZSTD_getBlockSize_deprecated(ptr noundef %16)
  store i64 %17, ptr %12, align 8, !tbaa !3
  br label %18

18:                                               ; preds = %15
  %19 = load i64, ptr %11, align 8, !tbaa !3
  %20 = load i64, ptr %12, align 8, !tbaa !3
  %21 = icmp ugt i64 %19, %20
  br i1 %21, label %22, label %35

22:                                               ; preds = %18
  br label %23

23:                                               ; preds = %22
  br label %24

24:                                               ; preds = %23
  br label %25

25:                                               ; preds = %24
  br label %26

26:                                               ; preds = %25
  br label %27

27:                                               ; preds = %26
  br label %28

28:                                               ; preds = %27
  br label %29

29:                                               ; preds = %28
  br label %30

30:                                               ; preds = %29
  br label %31

31:                                               ; preds = %30
  br label %32

32:                                               ; preds = %31
  br label %33

33:                                               ; preds = %32
  br label %34

34:                                               ; preds = %33
  store i64 -72, ptr %6, align 8
  store i32 1, ptr %13, align 4
  br label %38

35:                                               ; preds = %18
  br label %36

36:                                               ; preds = %35
  br label %37

37:                                               ; preds = %36
  store i32 0, ptr %13, align 4
  br label %38

38:                                               ; preds = %37, %34
  call void @llvm.lifetime.end.p0(i64 8, ptr %12) #15
  %39 = load i32, ptr %13, align 4
  switch i32 %39, label %49 [
    i32 0, label %40
    i32 1, label %47
  ]

40:                                               ; preds = %38
  %41 = load ptr, ptr %7, align 8, !tbaa !11
  %42 = load ptr, ptr %8, align 8, !tbaa !15
  %43 = load i64, ptr %9, align 8, !tbaa !3
  %44 = load ptr, ptr %10, align 8, !tbaa !15
  %45 = load i64, ptr %11, align 8, !tbaa !3
  %46 = call i64 @ZSTD_compressContinue_internal(ptr noundef %41, ptr noundef %42, i64 noundef %43, ptr noundef %44, i64 noundef %45, i32 noundef 0, i32 noundef 0)
  store i64 %46, ptr %6, align 8
  br label %47

47:                                               ; preds = %40, %38
  %48 = load i64, ptr %6, align 8
  ret i64 %48

49:                                               ; preds = %38
  unreachable
}