; Function Attrs: nounwind uwtable
define i64 @ZSTD_compressBlock_deprecated(ptr noundef %0, ptr noundef %1, i64 noundef %2, ptr noundef %3, i64 noundef %4) local_unnamed_addr #2 {
  %6 = getelementptr i8, ptr %0, i64 244
  %.val = load i32, ptr %6, align 4, !tbaa !48
  %7 = getelementptr i8, ptr %0, i64 392
  %.val10 = load i64, ptr %7, align 8, !tbaa !170
  %8 = zext nneg i32 %.val to i64
  %9 = shl nuw i64 1, %8
  %..i = tail call range(i64 0, -9223372036854775807) i64 @llvm.umin.i64(i64 %.val10, i64 %9)
  %.not = icmp ugt i64 %4, %..i
  br i1 %.not, label %12, label %10

10:                                               ; preds = %5
  %11 = tail call fastcc i64 @ZSTD_compressContinue_internal(ptr noundef nonnull %0, ptr noundef %1, i64 noundef %2, ptr noundef %3, i64 noundef %4, i32 noundef 0, i32 noundef 0)
  br label %12

12:                                               ; preds = %5, %10
  %.1 = phi i64 [ -72, %5 ], [ %11, %10 ]
  ret i64 %.1
}